; Function Attrs: mustprogress uwtable
define hidden void @_ZN11cmd_context18set_produce_proofsEb(ptr noundef nonnull align 8 dereferenceable(872) %this, i1 noundef zeroext %f) local_unnamed_addr #4 align 2 {
entry:
  %m_proof = getelementptr inbounds i8, ptr %this, i64 185
  %0 = load i8, ptr %m_proof, align 1
  %1 = and i8 %0, 1
  %2 = icmp eq i8 %1, 0
  %cmp = xor i1 %2, %f
  br i1 %cmp, label %if.end14, label %if.end

if.end:                                           ; preds = %entry
  %frombool = zext i1 %f to i8
  store i8 %frombool, ptr %m_proof, align 1
  %m_manager.i = getelementptr inbounds i8, ptr %this, i64 296
  %3 = load ptr, ptr %m_manager.i, align 8
  %cmp.i.not = icmp eq ptr %3, null
  br i1 %cmp.i.not, label %if.end14, label %if.then8

if.then8:                                         ; preds = %if.end
  tail call void @_ZN11cmd_context12init_managerEv(ptr noundef nonnull align 8 dereferenceable(872) %this)
  %4 = load ptr, ptr %m_manager.i, align 8
  %cond = zext i1 %f to i32
  %m_proof_mode.i = getelementptr inbounds i8, ptr %4, i64 712
  store i32 %cond, ptr %m_proof_mode.i, align 8
  %m_solver_factory = getelementptr inbounds i8, ptr %this, i64 800
  %5 = load ptr, ptr %m_solver_factory, align 8
  %cmp.i4.not = icmp eq ptr %5, null
  br i1 %cmp.i4.not, label %if.end14, label %if.then12

if.then12:                                        ; preds = %if.then8
  tail call void @_ZN11cmd_context9mk_solverEv(ptr noundef nonnull align 8 dereferenceable(872) %this)
  br label %if.end14

if.end14:                                         ; preds = %if.then8, %if.then12, %entry, %if.end
  ret void
}